target datalayout = "e-m:e-p270:32:32-p271:32:32-p272:64:64-i64:64-i128:128-f80:128-n8:16:32:64-S128"
target triple = "x86_64-pc-linux-gnu"

%"class.std::filesystem::__cxx11::path" = type { %"class.std::__cxx11::basic_string", %"struct.std::filesystem::__cxx11::path::_List" }
%"class.std::__cxx11::basic_string" = type { %"struct.std::__cxx11::basic_string<char>::_Alloc_hider", i64, %union.anon }
%"struct.std::__cxx11::basic_string<char>::_Alloc_hider" = type { ptr }
%union.anon = type { i64, [8 x i8] }
%"struct.std::filesystem::__cxx11::path::_List" = type { %"class.std::unique_ptr" }
%"class.std::unique_ptr" = type { %"struct.std::__uniq_ptr_data" }
%"struct.std::__uniq_ptr_data" = type { %"class.std::__uniq_ptr_impl" }
%"class.std::__uniq_ptr_impl" = type { %"class.std::tuple" }
%"class.std::tuple" = type { %"struct.std::_Tuple_impl" }
%"struct.std::_Tuple_impl" = type { %"struct.std::_Head_base.1" }
%"struct.std::_Head_base.1" = type { ptr }

@.str = private unnamed_addr constant [129 x i8] c"generated/home/dtcxzyw/WorkSpace/Projects/compilers/llvm-opt-benchmark/bench/gromacs/gromacs/src/gromacs/utility/cstringutil.cpp\00", align 1
@.str.1 = private unnamed_addr constant [136 x i8] c"An input file contains a line longer than %d characters, while the buffer passed to fgets2 has size %d. The line starts with: '%20.20s'\00", align 1

; Function Attrs: mustprogress uwtable
define noundef ptr @_Z6fgets2PciP8_IO_FILE(ptr noundef %0, i32 noundef %1, ptr noundef %2) #0 personality ptr @__gxx_personality_v0 {
  %4 = alloca ptr, align 8
  %5 = alloca ptr, align 8
  %6 = alloca i32, align 4
  %7 = alloca ptr, align 8
  %8 = alloca ptr, align 8
  %9 = alloca i32, align 4
  %10 = alloca %"class.std::filesystem::__cxx11::path", align 8
  %11 = alloca ptr, align 8
  %12 = alloca i32, align 4
  store ptr %0, ptr %5, align 8, !tbaa !4
  store i32 %1, ptr %6, align 4, !tbaa !9
  store ptr %2, ptr %7, align 8, !tbaa !14
  call void @llvm.lifetime.start.p0(i64 8, ptr %8) #13
  store ptr null, ptr %8, align 8, !tbaa !4
  %13 = load ptr, ptr %5, align 8, !tbaa !4
  %14 = load i32, ptr %6, align 4, !tbaa !9
  %15 = load ptr, ptr %7, align 8, !tbaa !14
  %16 = call ptr @fgets(ptr noundef %13, i32 noundef %14, ptr noundef %15)
  %17 = icmp eq ptr %16, null
  br i1 %17, label %18, label %19

18:                                               ; preds = %3
  store ptr null, ptr %4, align 8
  store i32 1, ptr %9, align 4
  br label %47

19:                                               ; preds = %3
  %20 = load ptr, ptr %5, align 8, !tbaa !4
  %21 = call noundef ptr @strchr(ptr noundef %20, i32 noundef 10) #14
  store ptr %21, ptr %8, align 8, !tbaa !4
  %22 = icmp ne ptr %21, null
  br i1 %22, label %23, label %25

23:                                               ; preds = %19
  %24 = load ptr, ptr %8, align 8, !tbaa !4
  store i8 0, ptr %24, align 1, !tbaa !11
  br label %39

25:                                               ; preds = %19
  %26 = load ptr, ptr %7, align 8, !tbaa !14
  %27 = call i32 @feof(ptr noundef %26) #13
  %28 = icmp ne i32 %27, 0
  br i1 %28, label %38, label %29

29:                                               ; preds = %25
  call void @llvm.lifetime.start.p0(i64 40, ptr %10) #13
  call void @_ZNSt10filesystem7__cxx114pathC2IA129_cS1_EERKT_NS1_6formatE(ptr noundef nonnull align 8 dereferenceable(40) %10, ptr noundef nonnull align 1 dereferenceable(129) @.str, i8 noundef zeroext 2)
  %30 = load i32, ptr %6, align 4, !tbaa !9
  %31 = load i32, ptr %6, align 4, !tbaa !9
  %32 = load ptr, ptr %5, align 8, !tbaa !4
  invoke void (i32, ptr, i32, ptr, ...) @_Z9gmx_fataliRKNSt10filesystem7__cxx114pathEiPKcz(i32 noundef 0, ptr noundef nonnull align 8 dereferenceable(40) %10, i32 noundef 95, ptr noundef @.str.1, i32 noundef %30, i32 noundef %31, ptr noundef %32) #15
          to label %33 unwind label %34

33:                                               ; preds = %29
  unreachable

34:                                               ; preds = %29
  %35 = landingpad { ptr, i32 }
          cleanup
  %36 = extractvalue { ptr, i32 } %35, 0
  store ptr %36, ptr %11, align 8
  %37 = extractvalue { ptr, i32 } %35, 1
  store i32 %37, ptr %12, align 4
  call void @_ZNSt10filesystem7__cxx114pathD2Ev(ptr noundef nonnull align 8 dereferenceable(40) %10) #13
  call void @llvm.lifetime.end.p0(i64 40, ptr %10) #13
  call void @llvm.lifetime.end.p0(i64 8, ptr %8) #13
  br label %49

38:                                               ; preds = %25
  br label %39

39:                                               ; preds = %38, %23
  %40 = load ptr, ptr %5, align 8, !tbaa !4
  %41 = call noundef ptr @strchr(ptr noundef %40, i32 noundef 13) #14
  store ptr %41, ptr %8, align 8, !tbaa !4
  %42 = icmp ne ptr %41, null
  br i1 %42, label %43, label %45

43:                                               ; preds = %39
  %44 = load ptr, ptr %8, align 8, !tbaa !4
  store i8 0, ptr %44, align 1, !tbaa !11
  br label %45

45:                                               ; preds = %43, %39
  %46 = load ptr, ptr %5, align 8, !tbaa !4
  store ptr %46, ptr %4, align 8
  store i32 1, ptr %9, align 4
  br label %47

47:                                               ; preds = %45, %18
  call void @llvm.lifetime.end.p0(i64 8, ptr %8) #13
  %48 = load ptr, ptr %4, align 8
  ret ptr %48

49:                                               ; preds = %34
  %50 = load ptr, ptr %11, align 8
  %51 = load i32, ptr %12, align 4
  %52 = insertvalue { ptr, i32 } poison, ptr %50, 0
  %53 = insertvalue { ptr, i32 } %52, i32 %51, 1
  resume { ptr, i32 } %53
}