; Function Attrs: mustprogress uwtable
define noundef ptr @_Z6fgets2PciP8_IO_FILE(ptr noundef %0, i32 noundef %1, ptr noundef captures(none) %2) local_unnamed_addr #3 personality ptr @__gxx_personality_v0 {
  %4 = alloca %"class.std::filesystem::__cxx11::path", align 8
  %5 = tail call ptr @fgets(ptr noundef %0, i32 noundef %1, ptr noundef %2)
  %6 = icmp eq ptr %5, null
  br i1 %6, label %19, label %7

7:                                                ; preds = %3
  %8 = tail call noundef ptr @strchr(ptr noundef nonnull dereferenceable(1) %0, i32 noundef 10) #24
  %.not = icmp eq ptr %8, null
  br i1 %.not, label %10, label %9

9:                                                ; preds = %7
  store i8 0, ptr %8, align 1, !tbaa !4
  br label %16

10:                                               ; preds = %7
  %11 = tail call i32 @feof(ptr noundef %2) #25
  %.not16 = icmp eq i32 %11, 0
  br i1 %.not16, label %12, label %16

12:                                               ; preds = %10
  call void @llvm.lifetime.start.p0(i64 40, ptr nonnull %4) #25
  call void @_ZNSt10filesystem7__cxx114pathC2IA129_cS1_EERKT_NS1_6formatE(ptr noundef nonnull align 8 dereferenceable(40) %4, ptr noundef nonnull align 1 dereferenceable(129) @.str, i8 noundef zeroext 2)
  invoke void (i32, ptr, i32, ptr, ...) @_Z9gmx_fataliRKNSt10filesystem7__cxx114pathEiPKcz(i32 noundef 0, ptr noundef nonnull align 8 dereferenceable(40) %4, i32 noundef 95, ptr noundef nonnull @.str.1, i32 noundef %1, i32 noundef %1, ptr noundef nonnull %0) #26
          to label %13 unwind label %14

13:                                               ; preds = %12
  unreachable

14:                                               ; preds = %12
  %15 = landingpad { ptr, i32 }
          cleanup
  call void @_ZNSt10filesystem7__cxx114pathD2Ev(ptr noundef nonnull align 8 dereferenceable(40) %4) #25
  call void @llvm.lifetime.end.p0(i64 40, ptr nonnull %4) #25
  resume { ptr, i32 } %15

16:                                               ; preds = %10, %9
  %17 = tail call noundef ptr @strchr(ptr noundef nonnull dereferenceable(1) %0, i32 noundef 13) #24
  %.not17 = icmp eq ptr %17, null
  br i1 %.not17, label %19, label %18

18:                                               ; preds = %16
  store i8 0, ptr %17, align 1, !tbaa !4
  br label %19

19:                                               ; preds = %16, %18, %3
  %.0 = phi ptr [ null, %3 ], [ %0, %18 ], [ %0, %16 ]
  ret ptr %.0
}